target datalayout = "e-m:e-p270:32:32-p271:32:32-p272:64:64-i64:64-i128:128-f80:128-n8:16:32:64-S128"
target triple = "x86_64-pc-linux-gnu"

%"class.folly::Range" = type { ptr, ptr }
%"struct.folly::dynamic" = type { i32, %"union.folly::dynamic::Data" }
%"union.folly::dynamic::Data" = type { %"class.std::__cxx11::basic_string" }
%"class.std::__cxx11::basic_string" = type { %"struct.std::__cxx11::basic_string<char>::_Alloc_hider", i64, %union.anon }
%"struct.std::__cxx11::basic_string<char>::_Alloc_hider" = type { ptr }
%union.anon = type { i64, [8 x i8] }

; Function Attrs: mustprogress nounwind uwtable
define linkonce_odr void @_ZN5folly7dynamic4DataD2Ev(ptr noundef nonnull align 8 dereferenceable(32) %0) unnamed_addr #8 comdat align 2 {
  %2 = alloca ptr, align 8
  store ptr %0, ptr %2, align 8, !tbaa !15
  ret void
}

; Function Attrs: inlinehint mustprogress nounwind uwtable
define linkonce_odr void @_ZN5folly7dynamicD2Ev(ptr noundef nonnull align 8 dereferenceable(40) %0) unnamed_addr #7 comdat align 2 {
  %2 = alloca ptr, align 8
  store ptr %0, ptr %2, align 8, !tbaa !13
  %3 = load ptr, ptr %2, align 8
  call void @_ZN5folly7dynamic7destroyEv(ptr noundef nonnull align 8 dereferenceable(40) %3) #3
  %4 = getelementptr inbounds nuw %"struct.folly::dynamic", ptr %3, i32 0, i32 1
  call void @_ZN5folly7dynamic4DataD2Ev(ptr noundef nonnull align 8 dereferenceable(32) %4) #3
  ret void
}

; Function Attrs: mustprogress uwtable
define noundef zeroext i1 @_ZN5folly24compareJsonWithToleranceENS_5RangeIPKcEES3_d(ptr %0, ptr %1, ptr %2, ptr %3, double noundef %4) #4 personality ptr @__gxx_personality_v0 {
  %6 = alloca %"class.folly::Range", align 8
  %7 = alloca %"class.folly::Range", align 8
  %8 = alloca double, align 8
  %9 = alloca %"struct.folly::dynamic", align 8
  %10 = alloca %"class.folly::Range", align 8
  %11 = alloca %"struct.folly::dynamic", align 8
  %12 = alloca %"class.folly::Range", align 8
  %13 = alloca ptr, align 8
  %14 = alloca i32, align 4
  %15 = getelementptr inbounds nuw { ptr, ptr }, ptr %6, i32 0, i32 0
  store ptr %0, ptr %15, align 8
  %16 = getelementptr inbounds nuw { ptr, ptr }, ptr %6, i32 0, i32 1
  store ptr %1, ptr %16, align 8
  %17 = getelementptr inbounds nuw { ptr, ptr }, ptr %7, i32 0, i32 0
  store ptr %2, ptr %17, align 8
  %18 = getelementptr inbounds nuw { ptr, ptr }, ptr %7, i32 0, i32 1
  store ptr %3, ptr %18, align 8
  store double %4, ptr %8, align 8, !tbaa !138
  call void @llvm.lifetime.start.p0(i64 40, ptr %9) #3
  call void @llvm.memcpy.p0.p0.i64(ptr align 8 %10, ptr align 8 %6, i64 16, i1 false), !tbaa.struct !7
  %19 = getelementptr inbounds nuw { ptr, ptr }, ptr %10, i32 0, i32 0
  %20 = load ptr, ptr %19, align 8
  %21 = getelementptr inbounds nuw { ptr, ptr }, ptr %10, i32 0, i32 1
  %22 = load ptr, ptr %21, align 8
  call void @_ZN5folly9parseJsonENS_5RangeIPKcEE(ptr dead_on_unwind writable sret(%"struct.folly::dynamic") align 8 %9, ptr %20, ptr %22)
  call void @llvm.lifetime.start.p0(i64 40, ptr %11) #3
  call void @llvm.memcpy.p0.p0.i64(ptr align 8 %12, ptr align 8 %7, i64 16, i1 false), !tbaa.struct !7
  %23 = getelementptr inbounds nuw { ptr, ptr }, ptr %12, i32 0, i32 0
  %24 = load ptr, ptr %23, align 8
  %25 = getelementptr inbounds nuw { ptr, ptr }, ptr %12, i32 0, i32 1
  %26 = load ptr, ptr %25, align 8
  invoke void @_ZN5folly9parseJsonENS_5RangeIPKcEE(ptr dead_on_unwind writable sret(%"struct.folly::dynamic") align 8 %11, ptr %24, ptr %26)
          to label %27 unwind label %31

27:                                               ; preds = %5
  %28 = load double, ptr %8, align 8, !tbaa !138
  %29 = invoke noundef zeroext i1 @_ZN5folly27compareDynamicWithToleranceERKNS_7dynamicES2_d(ptr noundef nonnull align 8 dereferenceable(40) %9, ptr noundef nonnull align 8 dereferenceable(40) %11, double noundef %28)
          to label %30 unwind label %35

30:                                               ; preds = %27
  call void @_ZN5folly7dynamicD2Ev(ptr noundef nonnull align 8 dereferenceable(40) %11) #3
  call void @llvm.lifetime.end.p0(i64 40, ptr %11) #3
  call void @_ZN5folly7dynamicD2Ev(ptr noundef nonnull align 8 dereferenceable(40) %9) #3
  call void @llvm.lifetime.end.p0(i64 40, ptr %9) #3
  ret i1 %29

31:                                               ; preds = %5
  %32 = landingpad { ptr, i32 }
          cleanup
  %33 = extractvalue { ptr, i32 } %32, 0
  store ptr %33, ptr %13, align 8
  %34 = extractvalue { ptr, i32 } %32, 1
  store i32 %34, ptr %14, align 4
  br label %39

35:                                               ; preds = %27
  %36 = landingpad { ptr, i32 }
          cleanup
  %37 = extractvalue { ptr, i32 } %36, 0
  store ptr %37, ptr %13, align 8
  %38 = extractvalue { ptr, i32 } %36, 1
  store i32 %38, ptr %14, align 4
  call void @_ZN5folly7dynamicD2Ev(ptr noundef nonnull align 8 dereferenceable(40) %11) #3
  br label %39

39:                                               ; preds = %35, %31
  call void @llvm.lifetime.end.p0(i64 40, ptr %11) #3
  call void @_ZN5folly7dynamicD2Ev(ptr noundef nonnull align 8 dereferenceable(40) %9) #3
  call void @llvm.lifetime.end.p0(i64 40, ptr %9) #3
  br label %40

40:                                               ; preds = %39
  %41 = load ptr, ptr %13, align 8
  %42 = load i32, ptr %14, align 4
  %43 = insertvalue { ptr, i32 } poison, ptr %41, 0
  %44 = insertvalue { ptr, i32 } %43, i32 %42, 1
  resume { ptr, i32 } %44
}