; Function Attrs: mustprogress uwtable
define noundef zeroext i1 @_ZN5folly24compareJsonWithToleranceENS_5RangeIPKcEES3_d(ptr %0, ptr %1, ptr %2, ptr %3, double noundef %4) local_unnamed_addr #3 personality ptr @__gxx_personality_v0 {
  %6 = alloca %"struct.folly::dynamic", align 8
  %7 = alloca %"struct.folly::dynamic", align 8
  call void @llvm.lifetime.start.p0(i64 40, ptr nonnull %6) #24
  call void @_ZN5folly9parseJsonENS_5RangeIPKcEE(ptr dead_on_unwind nonnull writable sret(%"struct.folly::dynamic") align 8 %6, ptr %0, ptr %1)
  call void @llvm.lifetime.start.p0(i64 40, ptr nonnull %7) #24
  invoke void @_ZN5folly9parseJsonENS_5RangeIPKcEE(ptr dead_on_unwind nonnull writable sret(%"struct.folly::dynamic") align 8 %7, ptr %2, ptr %3)
          to label %8 unwind label %11

8:                                                ; preds = %5
  %9 = invoke noundef zeroext i1 @_ZN5folly27compareDynamicWithToleranceERKNS_7dynamicES2_d(ptr noundef nonnull align 8 dereferenceable(40) %6, ptr noundef nonnull align 8 dereferenceable(40) %7, double noundef %4)
          to label %10 unwind label %13

10:                                               ; preds = %8
  call void @_ZN5folly7dynamic7destroyEv(ptr noundef nonnull align 8 dereferenceable(40) %7) #24
  call void @llvm.lifetime.end.p0(i64 40, ptr nonnull %7) #24
  call void @_ZN5folly7dynamic7destroyEv(ptr noundef nonnull align 8 dereferenceable(40) %6) #24
  call void @llvm.lifetime.end.p0(i64 40, ptr nonnull %6) #24
  ret i1 %9

11:                                               ; preds = %5
  %12 = landingpad { ptr, i32 }
          cleanup
  br label %15

13:                                               ; preds = %8
  %14 = landingpad { ptr, i32 }
          cleanup
  call void @_ZN5folly7dynamic7destroyEv(ptr noundef nonnull align 8 dereferenceable(40) %7) #24
  br label %15

15:                                               ; preds = %13, %11
  %.pn = phi { ptr, i32 } [ %14, %13 ], [ %12, %11 ]
  call void @llvm.lifetime.end.p0(i64 40, ptr nonnull %7) #24
  call void @_ZN5folly7dynamic7destroyEv(ptr noundef nonnull align 8 dereferenceable(40) %6) #24
  call void @llvm.lifetime.end.p0(i64 40, ptr nonnull %6) #24
  resume { ptr, i32 } %.pn
}